(lp0
(ccopy_reg
_reconstructor
p1
(cgeometry_msgs.msg._Pose
Pose
p2
c__builtin__
object
p3
Ntp4
Rp5
(lp6
g1
(cgeometry_msgs.msg._Point
Point
p7
g3
Ntp8
Rp9
(lp10
F-0.14972645629972664
aF-0.131394514138795
aF0.5649784754479251
abag1
(cgeometry_msgs.msg._Quaternion
Quaternion
p11
g3
Ntp12
Rp13
(lp14
F-0.17167760023696443
aF-0.40004090230345896
aF0.33024143387439053
aF0.8375169690302986
ababg1
(cmoveit_msgs.msg._RobotState
RobotState
p15
g3
Ntp16
Rp17
(lp18
g1
(csensor_msgs.msg._JointState
JointState
p19
g3
Ntp20
Rp21
(lp22
g1
(cstd_msgs.msg._Header
Header
p23
g3
Ntp24
Rp25
(lp26
I0
ag1
(cgenpy.rostime
Time
p27
g3
Ntp28
Rp29
(lp30
I0
aI0
abaS'world'
p31
aba(lp32
S'shoulder_pan_joint'
p33
aS'shoulder_lift_joint'
p34
aS'elbow_joint'
p35
aS'wrist_1_joint'
p36
aS'wrist_2_joint'
p37
aS'wrist_3_joint'
p38
aS'robotiq_2f_85_left_driver_joint'
p39
aS'robotiq_2f_85_right_driver_joint'
p40
aS'robotiq_2f_85_left_driver_mimic_joint'
p41
aS'robotiq_2f_85_left_spring_link_joint'
p42
aS'robotiq_2f_85_right_driver_mimic_joint'
p43
aS'robotiq_2f_85_right_spring_link_joint'
p44
aa(lp45
F5.772465233364624
aF-2.3435113152130667
aF2.448269708534931
aF3.628669232661773
aF-4.777794690121062
aF5.512818840633011
aF0.0
aF1.0840130926226266e-07
aF-4.874667509924269e-12
aF-5.344377718152771e-12
aF1.9357428300281754e-06
aF1.9410599634284154e-06
aa(ta(tabag1
(csensor_msgs.msg._MultiDOFJointState
MultiDOFJointState
p46
g3
Ntp47
Rp48
(lp49
g1
(g23
g3
Ntp50
Rp51
(lp52
I0
ag1
(g27
g3
Ntp53
Rp54
(lp55
I0
aI0
abaS'world'
p56
aba(lp57
a(lp58
a(lp59
a(lp60
aba(lp61
aI00
abtp62
a(g1
(g2
g3
Ntp63
Rp64
(lp65
g1
(g7
g3
Ntp66
Rp67
(lp68
F-0.40942129546369843
aF0.1539839978617642
aF0.783843861476236
abag1
(g11
g3
Ntp69
Rp70
(lp71
F-0.2673314806226692
aF-0.8572208129475795
aF0.38448173477464814
aF0.2141965287820033
ababg1
(g15
g3
Ntp72
Rp73
(lp74
g1
(g19
g3
Ntp75
Rp76
(lp77
g1
(g23
g3
Ntp78
Rp79
(lp80
I0
ag1
(g27
g3
Ntp81
Rp82
(lp83
I0
aI0
abag31
aba(lp84
g33
ag34
ag35
ag36
ag37
ag38
ag39
ag40
ag41
ag42
ag43
ag44
aa(lp85
F-3.980183399026341
aF4.245612677666937
aF1.1902879330930523
aF-4.6218439275401035
aF6.058970404117867
aF-6.183485678724569
aF0.0
aF1.0840130926226266e-07
aF-4.874667509924269e-12
aF-5.344377718152771e-12
aF1.9357428300281754e-06
aF1.9410599634284154e-06
aa(ta(tabag1
(g46
g3
Ntp86
Rp87
(lp88
g1
(g23
g3
Ntp89
Rp90
(lp91
I0
ag1
(g27
g3
Ntp92
Rp93
(lp94
I0
aI0
abag56
aba(lp95
a(lp96
a(lp97
a(lp98
aba(lp99
aI00
abtp100
a(g1
(g2
g3
Ntp101
Rp102
(lp103
g1
(g7
g3
Ntp104
Rp105
(lp106
F-0.1907783182442754
aF0.2185666197459547
aF0.5773180943891296
abag1
(g11
g3
Ntp107
Rp108
(lp109
F0.040223142874305604
aF0.03900316784055942
aF0.7169089000753357
aF0.6949118510059293
ababg1
(g15
g3
Ntp110
Rp111
(lp112
g1
(g19
g3
Ntp113
Rp114
(lp115
g1
(g23
g3
Ntp116
Rp117
(lp118
I0
ag1
(g27
g3
Ntp119
Rp120
(lp121
I0
aI0
abag31
aba(lp122
g33
ag34
ag35
ag36
ag37
ag38
ag39
ag40
ag41
ag42
ag43
ag44
aa(lp123
F1.1118023123090506
aF3.6040723922417808
aF2.3563099553906603
aF3.4717590006293477
aF-5.793221992824115
aF0.10556446703521338
aF0.0
aF1.0840130926226266e-07
aF-4.874667509924269e-12
aF-5.344377718152771e-12
aF1.9357428300281754e-06
aF1.9410599634284154e-06
aa(ta(tabag1
(g46
g3
Ntp124
Rp125
(lp126
g1
(g23
g3
Ntp127
Rp128
(lp129
I0
ag1
(g27
g3
Ntp130
Rp131
(lp132
I0
aI0
abag56
aba(lp133
a(lp134
a(lp135
a(lp136
aba(lp137
aI00
abtp138
a(g1
(g2
g3
Ntp139
Rp140
(lp141
g1
(g7
g3
Ntp142
Rp143
(lp144
F-0.11060737583889789
aF-0.04502287108909073
aF0.9327857653440014
abag1
(g11
g3
Ntp145
Rp146
(lp147
F-0.00357830450415705
aF0.22769993149113646
aF0.7200645913742076
aF0.6554745770698532
ababg1
(g15
g3
Ntp148
Rp149
(lp150
g1
(g19
g3
Ntp151
Rp152
(lp153
g1
(g23
g3
Ntp154
Rp155
(lp156
I0
ag1
(g27
g3
Ntp157
Rp158
(lp159
I0
aI0
abag31
aba(lp160
g33
ag34
ag35
ag36
ag37
ag38
ag39
ag40
ag41
ag42
ag43
ag44
aa(lp161
F4.710594655769892
aF4.179800662915211
aF0.48552169025869807
aF-0.3913410841041278
aF-2.7995916357605393
aF1.4551378215654358
aF0.0
aF1.0840130926226266e-07
aF-4.874667509924269e-12
aF-5.344377718152771e-12
aF1.9357428300281754e-06
aF1.9410599634284154e-06
aa(ta(tabag1
(g46
g3
Ntp162
Rp163
(lp164
g1
(g23
g3
Ntp165
Rp166
(lp167
I0
ag1
(g27
g3
Ntp168
Rp169
(lp170
I0
aI0
abag56
aba(lp171
a(lp172
a(lp173
a(lp174
aba(lp175
aI00
abtp176
a(g1
(g2
g3
Ntp177
Rp178
(lp179
g1
(g7
g3
Ntp180
Rp181
(lp182
F-0.011668286502539316
aF0.2729083275521693
aF0.4672533813999073
abag1
(g11
g3
Ntp183
Rp184
(lp185
F-0.05110974461602955
aF-0.37859928291907924
aF0.7733850746146692
aF0.5058911971379877
ababg1
(g15
g3
Ntp186
Rp187
(lp188
g1
(g19
g3
Ntp189
Rp190
(lp191
g1
(g23
g3
Ntp192
Rp193
(lp194
I0
ag1
(g27
g3
Ntp195
Rp196
(lp197
I0
aI0
abag31
aba(lp198
g33
ag34
ag35
ag36
ag37
ag38
ag39
ag40
ag41
ag42
ag43
ag44
aa(lp199
F-4.502966294483802
aF-6.175593092320951
aF-1.781305068449066
aF-3.820175309224276
aF-0.44256810696668225
aF-4.613140340315046
aF0.0
aF1.0840130926226266e-07
aF-4.874667509924269e-12
aF-5.344377718152771e-12
aF1.9357428300281754e-06
aF1.9410599634284154e-06
aa(ta(tabag1
(g46
g3
Ntp200
Rp201
(lp202
g1
(g23
g3
Ntp203
Rp204
(lp205
I0
ag1
(g27
g3
Ntp206
Rp207
(lp208
I0
aI0
abag56
aba(lp209
a(lp210
a(lp211
a(lp212
aba(lp213
aI00
abtp214
a(g1
(g2
g3
Ntp215
Rp216
(lp217
g1
(g7
g3
Ntp218
Rp219
(lp220
F-0.01023248340128477
aF0.1702205539499919
aF0.9047507696773068
abag1
(g11
g3
Ntp221
Rp222
(lp223
F-0.44556367265325747
aF-0.15514391215182993
aF-0.5629198611683492
aF0.6786196357578911
ababg1
(g15
g3
Ntp224
Rp225
(lp226
g1
(g19
g3
Ntp227
Rp228
(lp229
g1
(g23
g3
Ntp230
Rp231
(lp232
I0
ag1
(g27
g3
Ntp233
Rp234
(lp235
I0
aI0
abag31
aba(lp236
g33
ag34
ag35
ag36
ag37
ag38
ag39
ag40
ag41
ag42
ag43
ag44
aa(lp237
F6.036864374833014
aF-2.113890748446199
aF0.1792141531716971
aF-5.2801649132287825
aF-5.1916042970550675
aF-3.245727273272046
aF0.0
aF1.0840130926226266e-07
aF-4.874667509924269e-12
aF-5.344377718152771e-12
aF1.9357428300281754e-06
aF1.9410599634284154e-06
aa(ta(tabag1
(g46
g3
Ntp238
Rp239
(lp240
g1
(g23
g3
Ntp241
Rp242
(lp243
I0
ag1
(g27
g3
Ntp244
Rp245
(lp246
I0
aI0
abag56
aba(lp247
a(lp248
a(lp249
a(lp250
aba(lp251
aI00
abtp252
a(g1
(g2
g3
Ntp253
Rp254
(lp255
g1
(g7
g3
Ntp256
Rp257
(lp258
F-0.24342546435442247
aF-0.26240213446164307
aF0.7881169479580675
abag1
(g11
g3
Ntp259
Rp260
(lp261
F-0.42192708502261417
aF0.35083355329325044
aF-0.2392483955381664
aF0.8010328070936701
ababg1
(g15
g3
Ntp262
Rp263
(lp264
g1
(g19
g3
Ntp265
Rp266
(lp267
g1
(g23
g3
Ntp268
Rp269
(lp270
I0
ag1
(g27
g3
Ntp271
Rp272
(lp273
I0
aI0
abag31
aba(lp274
g33
ag34
ag35
ag36
ag37
ag38
ag39
ag40
ag41
ag42
ag43
ag44
aa(lp275
F-1.070941667396319
aF4.331001084722551
aF0.9909572402267299
aF-0.0304549583541176
aF-0.44486352783731853
aF2.9551839453762074
aF0.0
aF1.0840130926226266e-07
aF-4.874667509924269e-12
aF-5.344377718152771e-12
aF1.9357428300281754e-06
aF1.9410599634284154e-06
aa(ta(tabag1
(g46
g3
Ntp276
Rp277
(lp278
g1
(g23
g3
Ntp279
Rp280
(lp281
I0
ag1
(g27
g3
Ntp282
Rp283
(lp284
I0
aI0
abag56
aba(lp285
a(lp286
a(lp287
a(lp288
aba(lp289
aI00
abtp290
a(g1
(g2
g3
Ntp291
Rp292
(lp293
g1
(g7
g3
Ntp294
Rp295
(lp296
F-0.16500844879848126
aF-0.1114173653908638
aF0.5615325847868557
abag1
(g11
g3
Ntp297
Rp298
(lp299
F-0.918985818381926
aF-0.23847154720660255
aF0.01930789096736658
aF0.31340643281876535
ababg1
(g15
g3
Ntp300
Rp301
(lp302
g1
(g19
g3
Ntp303
Rp304
(lp305
g1
(g23
g3
Ntp306
Rp307
(lp308
I0
ag1
(g27
g3
Ntp309
Rp310
(lp311
I0
aI0
abag31
aba(lp312
g33
ag34
ag35
ag36
ag37
ag38
ag39
ag40
ag41
ag42
ag43
ag44
aa(lp313
F-2.1524781093646697
aF-0.7960131174615164
aF-2.3812594483057583
aF-6.020025090552089
aF2.611695177896001
aF3.968659428629575
aF0.0
aF1.0840130926226266e-07
aF-4.874667509924269e-12
aF-5.344377718152771e-12
aF1.9357428300281754e-06
aF1.9410599634284154e-06
aa(ta(tabag1
(g46
g3
Ntp314
Rp315
(lp316
g1
(g23
g3
Ntp317
Rp318
(lp319
I0
ag1
(g27
g3
Ntp320
Rp321
(lp322
I0
aI0
abag56
aba(lp323
a(lp324
a(lp325
a(lp326
aba(lp327
aI00
abtp328
a(g1
(g2
g3
Ntp329
Rp330
(lp331
g1
(g7
g3
Ntp332
Rp333
(lp334
F-0.5289564764618196
aF0.06328467397184509
aF0.33055863307268907
abag1
(g11
g3
Ntp335
Rp336
(lp337
F0.21621079909419322
aF-0.7479008498612482
aF-0.6252744867125254
aF0.05412047115705182
ababg1
(g15
g3
Ntp338
Rp339
(lp340
g1
(g19
g3
Ntp341
Rp342
(lp343
g1
(g23
g3
Ntp344
Rp345
(lp346
I0
ag1
(g27
g3
Ntp347
Rp348
(lp349
I0
aI0
abag31
aba(lp350
g33
ag34
ag35
ag36
ag37
ag38
ag39
ag40
ag41
ag42
ag43
ag44
aa(lp351
F-2.7004753692959054
aF4.609606573919491
aF2.2699466465607596
aF-5.470382436917886
aF-6.090056848615918
aF3.524062716569061
aF0.0
aF1.0840130926226266e-07
aF-4.874667509924269e-12
aF-5.344377718152771e-12
aF1.9357428300281754e-06
aF1.9410599634284154e-06
aa(ta(tabag1
(g46
g3
Ntp352
Rp353
(lp354
g1
(g23
g3
Ntp355
Rp356
(lp357
I0
ag1
(g27
g3
Ntp358
Rp359
(lp360
I0
aI0
abag56
aba(lp361
a(lp362
a(lp363
a(lp364
aba(lp365
aI00
abtp366
a(g1
(g2
g3
Ntp367
Rp368
(lp369
g1
(g7
g3
Ntp370
Rp371
(lp372
F-0.5790644828392396
aF0.08187944610612143
aF0.2549078029605619
abag1
(g11
g3
Ntp373
Rp374
(lp375
F-0.09711223332900144
aF-0.010260573849445417
aF0.8965977603753879
aF0.43194489330465796
ababg1
(g15
g3
Ntp376
Rp377
(lp378
g1
(g19
g3
Ntp379
Rp380
(lp381
g1
(g23
g3
Ntp382
Rp383
(lp384
I0
ag1
(g27
g3
Ntp385
Rp386
(lp387
I0
aI0
abag31
aba(lp388
g33
ag34
ag35
ag36
ag37
ag38
ag39
ag40
ag41
ag42
ag43
ag44
aa(lp389
F-4.243406196363848
aF4.494890500997444
aF-2.7003586372106883
aF0.6346369066717203
aF-6.027565602313242
aF0.5922183417796543
aF0.0
aF1.0840130926226266e-07
aF-4.874667509924269e-12
aF-5.344377718152771e-12
aF1.9357428300281754e-06
aF1.9410599634284154e-06
aa(ta(tabag1
(g46
g3
Ntp390
Rp391
(lp392
g1
(g23
g3
Ntp393
Rp394
(lp395
I0
ag1
(g27
g3
Ntp396
Rp397
(lp398
I0
aI0
abag56
aba(lp399
a(lp400
a(lp401
a(lp402
aba(lp403
aI00
abtp404
a(g1
(g2
g3
Ntp405
Rp406
(lp407
g1
(g7
g3
Ntp408
Rp409
(lp410
F-1.0072590056513948
aF0.4415348577902339
aF0.3931097405026408
abag1
(g11
g3
Ntp411
Rp412
(lp413
F0.3796677810828927
aF-0.4038472484772588
aF0.8107133577477246
aF0.18842406288568914
ababg1
(g15
g3
Ntp414
Rp415
(lp416
g1
(g19
g3
Ntp417
Rp418
(lp419
g1
(g23
g3
Ntp420
Rp421
(lp422
I0
ag1
(g27
g3
Ntp423
Rp424
(lp425
I0
aI0
abag31
aba(lp426
g33
ag34
ag35
ag36
ag37
ag38
ag39
ag40
ag41
ag42
ag43
ag44
aa(lp427
F1.166463453439273
aF-2.545105016537061
aF-0.6592056678420986
aF4.121067653158175
aF-1.8266775809334774
aF2.535335778340505
aF0.0
aF1.0840130926226266e-07
aF-4.874667509924269e-12
aF-5.344377718152771e-12
aF1.9357428300281754e-06
aF1.9410599634284154e-06
aa(ta(tabag1
(g46
g3
Ntp428
Rp429
(lp430
g1
(g23
g3
Ntp431
Rp432
(lp433
I0
ag1
(g27
g3
Ntp434
Rp435
(lp436
I0
aI0
abag56
aba(lp437
a(lp438
a(lp439
a(lp440
aba(lp441
aI00
abtp442
a(g1
(g2
g3
Ntp443
Rp444
(lp445
g1
(g7
g3
Ntp446
Rp447
(lp448
F-0.05638559479605933
aF0.07716541128262594
aF0.8908713327395439
abag1
(g11
g3
Ntp449
Rp450
(lp451
F0.04609551693510727
aF-0.7370179894161475
aF0.48727162084137604
aF0.4660966145747926
ababg1
(g15
g3
Ntp452
Rp453
(lp454
g1
(g19
g3
Ntp455
Rp456
(lp457
g1
(g23
g3
Ntp458
Rp459
(lp460
I0
ag1
(g27
g3
Ntp461
Rp462
(lp463
I0
aI0
abag31
aba(lp464
g33
ag34
ag35
ag36
ag37
ag38
ag39
ag40
ag41
ag42
ag43
ag44
aa(lp465
F-0.8088632026162861
aF5.1791020148219715
aF-1.3244794745265371
aF4.187561010301973
aF-2.300874222544156
aF3.2863327326067022
aF0.0
aF1.0840130926226266e-07
aF-4.874667509924269e-12
aF-5.344377718152771e-12
aF1.9357428300281754e-06
aF1.9410599634284154e-06
aa(ta(tabag1
(g46
g3
Ntp466
Rp467
(lp468
g1
(g23
g3
Ntp469
Rp470
(lp471
I0
ag1
(g27
g3
Ntp472
Rp473
(lp474
I0
aI0
abag56
aba(lp475
a(lp476
a(lp477
a(lp478
aba(lp479
aI00
abtp480
a(g1
(g2
g3
Ntp481
Rp482
(lp483
g1
(g7
g3
Ntp484
Rp485
(lp486
F-0.27667126396766767
aF0.1132342510071691
aF0.6482999920916186
abag1
(g11
g3
Ntp487
Rp488
(lp489
F-0.12860544371916605
aF-0.13831054326517106
aF-0.20907575490827893
aF0.9594884898616675
ababg1
(g15
g3
Ntp490
Rp491
(lp492
g1
(g19
g3
Ntp493
Rp494
(lp495
g1
(g23
g3
Ntp496
Rp497
(lp498
I0
ag1
(g27
g3
Ntp499
Rp500
(lp501
I0
aI0
abag31
aba(lp502
g33
ag34
ag35
ag36
ag37
ag38
ag39
ag40
ag41
ag42
ag43
ag44
aa(lp503
F-4.865914034611182
aF-2.8927523832053295
aF2.1870563242689736
aF3.513317439910871
aF-1.800448922690295
aF6.003634132145736
aF0.0
aF1.0840130926226266e-07
aF-4.874667509924269e-12
aF-5.344377718152771e-12
aF1.9357428300281754e-06
aF1.9410599634284154e-06
aa(ta(tabag1
(g46
g3
Ntp504
Rp505
(lp506
g1
(g23
g3
Ntp507
Rp508
(lp509
I0
ag1
(g27
g3
Ntp510
Rp511
(lp512
I0
aI0
abag56
aba(lp513
a(lp514
a(lp515
a(lp516
aba(lp517
aI00
abtp518
a(g1
(g2
g3
Ntp519
Rp520
(lp521
g1
(g7
g3
Ntp522
Rp523
(lp524
F-0.3259872508726873
aF-0.2830693270557531
aF1.0693292965576304
abag1
(g11
g3
Ntp525
Rp526
(lp527
F-0.3544314241517717
aF0.08196457661976611
aF-0.6833172369533843
aF0.6330384881155979
ababg1
(g15
g3
Ntp528
Rp529
(lp530
g1
(g19
g3
Ntp531
Rp532
(lp533
g1
(g23
g3
Ntp534
Rp535
(lp536
I0
ag1
(g27
g3
Ntp537
Rp538
(lp539
I0
aI0
abag31
aba(lp540
g33
ag34
ag35
ag36
ag37
ag38
ag39
ag40
ag41
ag42
ag43
ag44
aa(lp541
F-2.8939878701883215
aF-2.0118517120993245
aF0.40292776541019837
aF5.147438651024345
aF1.3947247118369193
aF-0.7248061943787762
aF0.0
aF1.0840130926226266e-07
aF-4.874667509924269e-12
aF-5.344377718152771e-12
aF1.9357428300281754e-06
aF1.9410599634284154e-06
aa(ta(tabag1
(g46
g3
Ntp542
Rp543
(lp544
g1
(g23
g3
Ntp545
Rp546
(lp547
I0
ag1
(g27
g3
Ntp548
Rp549
(lp550
I0
aI0
abag56
aba(lp551
a(lp552
a(lp553
a(lp554
aba(lp555
aI00
abtp556
a(g1
(g2
g3
Ntp557
Rp558
(lp559
g1
(g7
g3
Ntp560
Rp561
(lp562
F0.45815749678030226
aF0.10978961940529891
aF0.5412187449095068
abag1
(g11
g3
Ntp563
Rp564
(lp565
F-0.33909131504180834
aF-0.3713551095113979
aF0.6723991634550142
aF0.5431315012849027
ababg1
(g15
g3
Ntp566
Rp567
(lp568
g1
(g19
g3
Ntp569
Rp570
(lp571
g1
(g23
g3
Ntp572
Rp573
(lp574
I0
ag1
(g27
g3
Ntp575
Rp576
(lp577
I0
aI0
abag31
aba(lp578
g33
ag34
ag35
ag36
ag37
ag38
ag39
ag40
ag41
ag42
ag43
ag44
aa(lp579
F4.923675134261405
aF-2.1305786850743154
aF-1.0777056007984385
aF-0.9865926138968089
aF3.0810067732363215
aF-2.10555873070993
aF0.0
aF1.0840130926226266e-07
aF-4.874667509924269e-12
aF-5.344377718152771e-12
aF1.9357428300281754e-06
aF1.9410599634284154e-06
aa(ta(tabag1
(g46
g3
Ntp580
Rp581
(lp582
g1
(g23
g3
Ntp583
Rp584
(lp585
I0
ag1
(g27
g3
Ntp586
Rp587
(lp588
I0
aI0
abag56
aba(lp589
a(lp590
a(lp591
a(lp592
aba(lp593
aI00
abtp594
a(g1
(g2
g3
Ntp595
Rp596
(lp597
g1
(g7
g3
Ntp598
Rp599
(lp600
F-0.33973759047598207
aF-0.09011892541713659
aF0.5093717706349817
abag1
(g11
g3
Ntp601
Rp602
(lp603
F0.7453249013587424
aF-0.3925778660600025
aF0.4539046316877102
aF0.29042037777470087
ababg1
(g15
g3
Ntp604
Rp605
(lp606
g1
(g19
g3
Ntp607
Rp608
(lp609
g1
(g23
g3
Ntp610
Rp611
(lp612
I0
ag1
(g27
g3
Ntp613
Rp614
(lp615
I0
aI0
abag31
aba(lp616
g33
ag34
ag35
ag36
ag37
ag38
ag39
ag40
ag41
ag42
ag43
ag44
aa(lp617
F3.2859704350926986
aF3.0531400563614213
aF2.516354697142284
aF5.048823328671759
aF1.8034190969699768
aF3.4879750584018154
aF0.0
aF1.0840130926226266e-07
aF-4.874667509924269e-12
aF-5.344377718152771e-12
aF1.9357428300281754e-06
aF1.9410599634284154e-06
aa(ta(tabag1
(g46
g3
Ntp618
Rp619
(lp620
g1
(g23
g3
Ntp621
Rp622
(lp623
I0
ag1
(g27
g3
Ntp624
Rp625
(lp626
I0
aI0
abag56
aba(lp627
a(lp628
a(lp629
a(lp630
aba(lp631
aI00
abtp632
a(g1
(g2
g3
Ntp633
Rp634
(lp635
g1
(g7
g3
Ntp636
Rp637
(lp638
F-0.42189364008496366
aF-0.08006165870555376
aF0.38585182064063556
abag1
(g11
g3
Ntp639
Rp640
(lp641
F-0.21475550724269776
aF-0.861344842556128
aF-0.4423177150175066
aF0.12775043362972488
ababg1
(g15
g3
Ntp642
Rp643
(lp644
g1
(g19
g3
Ntp645
Rp646
(lp647
g1
(g23
g3
Ntp648
Rp649
(lp650
I0
ag1
(g27
g3
Ntp651
Rp652
(lp653
I0
aI0
abag31
aba(lp654
g33
ag34
ag35
ag36
ag37
ag38
ag39
ag40
ag41
ag42
ag43
ag44
aa(lp655
F3.7166151569911055
aF3.2962327966412506
aF2.4443905852167314
aF-6.275834415934445
aF0.933980406570047
aF-0.5481890777497895
aF0.0
aF1.0840130926226266e-07
aF-4.874667509924269e-12
aF-5.344377718152771e-12
aF1.9357428300281754e-06
aF1.9410599634284154e-06
aa(ta(tabag1
(g46
g3
Ntp656
Rp657
(lp658
g1
(g23
g3
Ntp659
Rp660
(lp661
I0
ag1
(g27
g3
Ntp662
Rp663
(lp664
I0
aI0
abag56
aba(lp665
a(lp666
a(lp667
a(lp668
aba(lp669
aI00
abtp670
a(g1
(g2
g3
Ntp671
Rp672
(lp673
g1
(g7
g3
Ntp674
Rp675
(lp676
F-0.5928869573389707
aF-0.5997025808074368
aF0.6078232691317793
abag1
(g11
g3
Ntp677
Rp678
(lp679
F0.505941077239928
aF-0.8490676710803466
aF-0.14767200596915706
aF0.0360651485584507
ababg1
(g15
g3
Ntp680
Rp681
(lp682
g1
(g19
g3
Ntp683
Rp684
(lp685
g1
(g23
g3
Ntp686
Rp687
(lp688
I0
ag1
(g27
g3
Ntp689
Rp690
(lp691
I0
aI0
abag31
aba(lp692
g33
ag34
ag35
ag36
ag37
ag38
ag39
ag40
ag41
ag42
ag43
ag44
aa(lp693
F-0.7683542402839745
aF-6.25710899137392
aF-1.2245323817746534
aF-1.8518014434431977
aF4.970657605647068
aF-3.457520018124285
aF0.0
aF1.0840130926226266e-07
aF-4.874667509924269e-12
aF-5.344377718152771e-12
aF1.9357428300281754e-06
aF1.9410599634284154e-06
aa(ta(tabag1
(g46
g3
Ntp694
Rp695
(lp696
g1
(g23
g3
Ntp697
Rp698
(lp699
I0
ag1
(g27
g3
Ntp700
Rp701
(lp702
I0
aI0
abag56
aba(lp703
a(lp704
a(lp705
a(lp706
aba(lp707
aI00
abtp708
a(g1
(g2
g3
Ntp709
Rp710
(lp711
g1
(g7
g3
Ntp712
Rp713
(lp714
F-0.5107986980704298
aF-0.3013605832679553
aF0.6295478301537596
abag1
(g11
g3
Ntp715
Rp716
(lp717
F-0.45206488894289865
aF0.36232307843247114
aF-0.5287407270677306
aF0.6203165051489037
ababg1
(g15
g3
Ntp718
Rp719
(lp720
g1
(g19
g3
Ntp721
Rp722
(lp723
g1
(g23
g3
Ntp724
Rp725
(lp726
I0
ag1
(g27
g3
Ntp727
Rp728
(lp729
I0
aI0
abag31
aba(lp730
g33
ag34
ag35
ag36
ag37
ag38
ag39
ag40
ag41
ag42
ag43
ag44
aa(lp731
F-1.3623891049976713
aF5.877253133744148
aF-1.5223970763033725
aF-5.131323584338561
aF0.04073863754492013
aF2.681937247988742
aF0.0
aF1.0840130926226266e-07
aF-4.874667509924269e-12
aF-5.344377718152771e-12
aF1.9357428300281754e-06
aF1.9410599634284154e-06
aa(ta(tabag1
(g46
g3
Ntp732
Rp733
(lp734
g1
(g23
g3
Ntp735
Rp736
(lp737
I0
ag1
(g27
g3
Ntp738
Rp739
(lp740
I0
aI0
abag56
aba(lp741
a(lp742
a(lp743
a(lp744
aba(lp745
aI00
abtp746
a(g1
(g2
g3
Ntp747
Rp748
(lp749
g1
(g7
g3
Ntp750
Rp751
(lp752
F-0.6713243945216699
aF-0.13280779216904387
aF0.5671428740166576
abag1
(g11
g3
Ntp753
Rp754
(lp755
F0.8938109480026193
aF-0.35726561245702027
aF0.17530915939608754
aF0.20671228801937797
ababg1
(g15
g3
Ntp756
Rp757
(lp758
g1
(g19
g3
Ntp759
Rp760
(lp761
g1
(g23
g3
Ntp762
Rp763
(lp764
I0
ag1
(g27
g3
Ntp765
Rp766
(lp767
I0
aI0
abag31
aba(lp768
g33
ag34
ag35
ag36
ag37
ag38
ag39
ag40
ag41
ag42
ag43
ag44
aa(lp769
F1.9810460864299344
aF-3.004988777798821
aF1.066202087848092
aF-5.199705109366416
aF-3.7987872830585636
aF-1.0176900361321266
aF0.0
aF1.0840130926226266e-07
aF-4.874667509924269e-12
aF-5.344377718152771e-12
aF1.9357428300281754e-06
aF1.9410599634284154e-06
aa(ta(tabag1
(g46
g3
Ntp770
Rp771
(lp772
g1
(g23
g3
Ntp773
Rp774
(lp775
I0
ag1
(g27
g3
Ntp776
Rp777
(lp778
I0
aI0
abag56
aba(lp779
a(lp780
a(lp781
a(lp782
aba(lp783
aI00
abtp784
a.