(lp0
(ccopy_reg
_reconstructor
p1
(cgeometry_msgs.msg._Pose
Pose
p2
c__builtin__
object
p3
Ntp4
Rp5
(lp6
g1
(cgeometry_msgs.msg._Point
Point
p7
g3
Ntp8
Rp9
(lp10
F-0.29937403749804653
aF0.6743459743717147
aF0.6335176137584606
abag1
(cgeometry_msgs.msg._Quaternion
Quaternion
p11
g3
Ntp12
Rp13
(lp14
F0.4514822332938591
aF0.4015868294964955
aF0.015791738853805967
aF0.796644483053084
ababg1
(cmoveit_msgs.msg._RobotState
RobotState
p15
g3
Ntp16
Rp17
(lp18
g1
(csensor_msgs.msg._JointState
JointState
p19
g3
Ntp20
Rp21
(lp22
g1
(cstd_msgs.msg._Header
Header
p23
g3
Ntp24
Rp25
(lp26
I0
ag1
(cgenpy.rostime
Time
p27
g3
Ntp28
Rp29
(lp30
I0
aI0
abaS'world'
p31
aba(lp32
S'shoulder_pan_joint'
p33
aS'shoulder_lift_joint'
p34
aS'elbow_joint'
p35
aS'wrist_1_joint'
p36
aS'wrist_2_joint'
p37
aS'wrist_3_joint'
p38
aS'robotiq_2f_85_left_driver_joint'
p39
aS'robotiq_2f_85_right_driver_joint'
p40
aS'robotiq_2f_85_left_driver_mimic_joint'
p41
aS'robotiq_2f_85_left_spring_link_joint'
p42
aS'robotiq_2f_85_right_driver_mimic_joint'
p43
aS'robotiq_2f_85_right_spring_link_joint'
p44
aa(lp45
F-5.880704517370987
aF3.512468414922715
aF0.8234765283028151
aF3.66346150612819
aF-5.598720664640217
aF2.6016604317714034
aF0.00038475633482448757
aF0.0003847567713819444
aF0.006871724035590887
aF0.006871724035590887
aF0.006871733348816633
aF0.0068717338144779205
aa(ta(tabag1
(csensor_msgs.msg._MultiDOFJointState
MultiDOFJointState
p46
g3
Ntp47
Rp48
(lp49
g1
(g23
g3
Ntp50
Rp51
(lp52
I0
ag1
(g27
g3
Ntp53
Rp54
(lp55
I0
aI0
abaS'world'
p56
aba(lp57
a(lp58
a(lp59
a(lp60
aba(lp61
aI00
abtp62
a(g1
(g2
g3
Ntp63
Rp64
(lp65
g1
(g7
g3
Ntp66
Rp67
(lp68
F-0.9237691262284413
aF0.18280552026233304
aF0.4638257226140339
abag1
(g11
g3
Ntp69
Rp70
(lp71
F-0.7025247984769124
aF-0.5909596634539069
aF0.2677338624044896
aF0.2924793370776687
ababg1
(g15
g3
Ntp72
Rp73
(lp74
g1
(g19
g3
Ntp75
Rp76
(lp77
g1
(g23
g3
Ntp78
Rp79
(lp80
I0
ag1
(g27
g3
Ntp81
Rp82
(lp83
I0
aI0
abag31
aba(lp84
g33
ag34
ag35
ag36
ag37
ag38
ag39
ag40
ag41
ag42
ag43
ag44
aa(lp85
F-4.647921536565766
aF3.927696083941843
aF-0.5223207581733016
aF-3.268529151244647
aF0.22542358060840506
aF0.6815755022183492
aF0.00038475633482448757
aF0.0003847567713819444
aF0.006871724035590887
aF0.006871724035590887
aF0.006871733348816633
aF0.0068717338144779205
aa(ta(tabag1
(g46
g3
Ntp86
Rp87
(lp88
g1
(g23
g3
Ntp89
Rp90
(lp91
I0
ag1
(g27
g3
Ntp92
Rp93
(lp94
I0
aI0
abag56
aba(lp95
a(lp96
a(lp97
a(lp98
aba(lp99
aI00
abtp100
a(g1
(g2
g3
Ntp101
Rp102
(lp103
g1
(g7
g3
Ntp104
Rp105
(lp106
F-0.2041675363815698
aF-0.5376697976666427
aF0.5574836184609324
abag1
(g11
g3
Ntp107
Rp108
(lp109
F0.07826092728233602
aF-0.4089739031410481
aF-0.7476468703879995
aF0.5173390870691252
ababg1
(g15
g3
Ntp110
Rp111
(lp112
g1
(g19
g3
Ntp113
Rp114
(lp115
g1
(g23
g3
Ntp116
Rp117
(lp118
I0
ag1
(g27
g3
Ntp119
Rp120
(lp121
I0
aI0
abag31
aba(lp122
g33
ag34
ag35
ag36
ag37
ag38
ag39
ag40
ag41
ag42
ag43
ag44
aa(lp123
F-2.664766738573817
aF4.43494295324431
aF-1.6360692650120234
aF0.8612589858424009
aF-5.617387610513441
aF-5.890423834951005
aF0.00038475633482448757
aF0.0003847567713819444
aF0.006871724035590887
aF0.006871724035590887
aF0.006871733348816633
aF0.0068717338144779205
aa(ta(tabag1
(g46
g3
Ntp124
Rp125
(lp126
g1
(g23
g3
Ntp127
Rp128
(lp129
I0
ag1
(g27
g3
Ntp130
Rp131
(lp132
I0
aI0
abag56
aba(lp133
a(lp134
a(lp135
a(lp136
aba(lp137
aI00
abtp138
a(g1
(g2
g3
Ntp139
Rp140
(lp141
g1
(g7
g3
Ntp142
Rp143
(lp144
F0.012265485535102531
aF0.7061601703133519
aF0.2984558943831461
abag1
(g11
g3
Ntp145
Rp146
(lp147
F-0.48417291365075693
aF-0.6686838519789824
aF0.5376707530671602
aF0.17131449759340306
ababg1
(g15
g3
Ntp148
Rp149
(lp150
g1
(g19
g3
Ntp151
Rp152
(lp153
g1
(g23
g3
Ntp154
Rp155
(lp156
I0
ag1
(g27
g3
Ntp157
Rp158
(lp159
I0
aI0
abag31
aba(lp160
g33
ag34
ag35
ag36
ag37
ag38
ag39
ag40
ag41
ag42
ag43
ag44
aa(lp161
F6.031957697855937
aF3.8786047634798653
aF-1.3117637949703003
aF0.17403525639843043
aF-3.9857186041269945
aF-2.23453617756116
aF0.00038475633482448757
aF0.0003847567713819444
aF0.006871724035590887
aF0.006871724035590887
aF0.006871733348816633
aF0.0068717338144779205
aa(ta(tabag1
(g46
g3
Ntp162
Rp163
(lp164
g1
(g23
g3
Ntp165
Rp166
(lp167
I0
ag1
(g27
g3
Ntp168
Rp169
(lp170
I0
aI0
abag56
aba(lp171
a(lp172
a(lp173
a(lp174
aba(lp175
aI00
abtp176
a(g1
(g2
g3
Ntp177
Rp178
(lp179
g1
(g7
g3
Ntp180
Rp181
(lp182
F0.12445106723013635
aF0.14813942676648817
aF0.7505688269388168
abag1
(g11
g3
Ntp183
Rp184
(lp185
F0.5792906959457237
aF0.3783111729435974
aF0.5382009365069454
aF0.4812927362425135
ababg1
(g15
g3
Ntp186
Rp187
(lp188
g1
(g19
g3
Ntp189
Rp190
(lp191
g1
(g23
g3
Ntp192
Rp193
(lp194
I0
ag1
(g27
g3
Ntp195
Rp196
(lp197
I0
aI0
abag31
aba(lp198
g33
ag34
ag35
ag36
ag37
ag38
ag39
ag40
ag41
ag42
ag43
ag44
aa(lp199
F5.261033098803345
aF3.332352516121121
aF1.505025127457687
aF-1.2957663907856318
aF-3.8705251283706317
aF1.832165176828159
aF0.00038475633482448757
aF0.0003847567713819444
aF0.006871724035590887
aF0.006871724035590887
aF0.006871733348816633
aF0.0068717338144779205
aa(ta(tabag1
(g46
g3
Ntp200
Rp201
(lp202
g1
(g23
g3
Ntp203
Rp204
(lp205
I0
ag1
(g27
g3
Ntp206
Rp207
(lp208
I0
aI0
abag56
aba(lp209
a(lp210
a(lp211
a(lp212
aba(lp213
aI00
abtp214
a(g1
(g2
g3
Ntp215
Rp216
(lp217
g1
(g7
g3
Ntp218
Rp219
(lp220
F0.2032192909978423
aF-0.012470833270198125
aF0.2439922847363895
abag1
(g11
g3
Ntp221
Rp222
(lp223
F0.18993607843830174
aF-0.10858313673770055
aF0.9673086087293585
aF0.1282499278820614
ababg1
(g15
g3
Ntp224
Rp225
(lp226
g1
(g19
g3
Ntp227
Rp228
(lp229
g1
(g23
g3
Ntp230
Rp231
(lp232
I0
ag1
(g27
g3
Ntp233
Rp234
(lp235
I0
aI0
abag31
aba(lp236
g33
ag34
ag35
ag36
ag37
ag38
ag39
ag40
ag41
ag42
ag43
ag44
aa(lp237
F1.2640717585769785
aF5.292692173325165
aF1.5930143132004586
aF6.0882158305815555
aF-1.6438635784307492
aF-3.286657760819718
aF0.00038475633482448757
aF0.0003847567713819444
aF0.006871724035590887
aF0.006871724035590887
aF0.006871733348816633
aF0.0068717338144779205
aa(ta(tabag1
(g46
g3
Ntp238
Rp239
(lp240
g1
(g23
g3
Ntp241
Rp242
(lp243
I0
ag1
(g27
g3
Ntp244
Rp245
(lp246
I0
aI0
abag56
aba(lp247
a(lp248
a(lp249
a(lp250
aba(lp251
aI00
abtp252
a(g1
(g2
g3
Ntp253
Rp254
(lp255
g1
(g7
g3
Ntp256
Rp257
(lp258
F0.000288362746908688
aF0.09224308335008502
aF0.6313934536153889
abag1
(g11
g3
Ntp259
Rp260
(lp261
F0.20872380443973187
aF0.08507326573485166
aF-0.11280638147349391
aF0.9677146445188626
ababg1
(g15
g3
Ntp262
Rp263
(lp264
g1
(g19
g3
Ntp265
Rp266
(lp267
g1
(g23
g3
Ntp268
Rp269
(lp270
I0
ag1
(g27
g3
Ntp271
Rp272
(lp273
I0
aI0
abag31
aba(lp274
g33
ag34
ag35
ag36
ag37
ag38
ag39
ag40
ag41
ag42
ag43
ag44
aa(lp275
F6.198554071412181
aF-2.452947757748744
aF1.7190816253928993
aF1.859546096644804
aF0.23681086471735302
aF2.431667455018717
aF0.00038475633482448757
aF0.0003847567713819444
aF0.006871724035590887
aF0.006871724035590887
aF0.006871733348816633
aF0.0068717338144779205
aa(ta(tabag1
(g46
g3
Ntp276
Rp277
(lp278
g1
(g23
g3
Ntp279
Rp280
(lp281
I0
ag1
(g27
g3
Ntp282
Rp283
(lp284
I0
aI0
abag56
aba(lp285
a(lp286
a(lp287
a(lp288
aba(lp289
aI00
abtp290
a(g1
(g2
g3
Ntp291
Rp292
(lp293
g1
(g7
g3
Ntp294
Rp295
(lp296
F-0.1336898249500705
aF-0.11378050270639503
aF0.894725510401904
abag1
(g11
g3
Ntp297
Rp298
(lp299
F0.3971971445765729
aF0.053196135188904814
aF0.8739648009636999
aF0.2749365858114584
ababg1
(g15
g3
Ntp300
Rp301
(lp302
g1
(g19
g3
Ntp303
Rp304
(lp305
g1
(g23
g3
Ntp306
Rp307
(lp308
I0
ag1
(g27
g3
Ntp309
Rp310
(lp311
I0
aI0
abag31
aba(lp312
g33
ag34
ag35
ag36
ag37
ag38
ag39
ag40
ag41
ag42
ag43
ag44
aa(lp313
F-1.7284691838738206
aF4.071853529500951
aF0.6335984747540055
aF-5.534986005264396
aF-4.265003636326771
aF-3.1529793232733554
aF0.00038475633482448757
aF0.0003847567713819444
aF0.006871724035590887
aF0.006871724035590887
aF0.006871733348816633
aF0.0068717338144779205
aa(ta(tabag1
(g46
g3
Ntp314
Rp315
(lp316
g1
(g23
g3
Ntp317
Rp318
(lp319
I0
ag1
(g27
g3
Ntp320
Rp321
(lp322
I0
aI0
abag56
aba(lp323
a(lp324
a(lp325
a(lp326
aba(lp327
aI00
abtp328
a(g1
(g2
g3
Ntp329
Rp330
(lp331
g1
(g7
g3
Ntp332
Rp333
(lp334
F-0.13845694296852748
aF0.255348466810068
aF0.8341889744736981
abag1
(g11
g3
Ntp335
Rp336
(lp337
F0.6605933995225168
aF-0.6161659971874361
aF-0.3217849550232639
aF0.2835670416990894
ababg1
(g15
g3
Ntp338
Rp339
(lp340
g1
(g19
g3
Ntp341
Rp342
(lp343
g1
(g23
g3
Ntp344
Rp345
(lp346
I0
ag1
(g27
g3
Ntp347
Rp348
(lp349
I0
aI0
abag31
aba(lp350
g33
ag34
ag35
ag36
ag37
ag38
ag39
ag40
ag41
ag42
ag43
ag44
aa(lp351
F0.10104354107478564
aF4.723219082885098
aF-1.1776930291276038
aF-0.32800010768678245
aF-1.6379618684636972
aF2.262496512415625
aF0.00038475633482448757
aF0.0003847567713819444
aF0.006871724035590887
aF0.006871724035590887
aF0.006871733348816633
aF0.0068717338144779205
aa(ta(tabag1
(g46
g3
Ntp352
Rp353
(lp354
g1
(g23
g3
Ntp355
Rp356
(lp357
I0
ag1
(g27
g3
Ntp358
Rp359
(lp360
I0
aI0
abag56
aba(lp361
a(lp362
a(lp363
a(lp364
aba(lp365
aI00
abtp366
a(g1
(g2
g3
Ntp367
Rp368
(lp369
g1
(g7
g3
Ntp370
Rp371
(lp372
F-0.14536219542419498
aF0.20413938265149356
aF0.4094830465599762
abag1
(g11
g3
Ntp373
Rp374
(lp375
F0.47798893540095155
aF0.2069869336508152
aF0.6092742279543624
aF0.5978861949256847
ababg1
(g15
g3
Ntp376
Rp377
(lp378
g1
(g19
g3
Ntp379
Rp380
(lp381
g1
(g23
g3
Ntp382
Rp383
(lp384
I0
ag1
(g27
g3
Ntp385
Rp386
(lp387
I0
aI0
abag31
aba(lp388
g33
ag34
ag35
ag36
ag37
ag38
ag39
ag40
ag41
ag42
ag43
ag44
aa(lp389
F1.2753379394014894
aF-0.6946012253177152
aF-2.676133828561599
aF1.4952993905931358
aF-5.924428757129652
aF-0.18285037649785174
aF0.00038475633482448757
aF0.0003847567713819444
aF0.006871724035590887
aF0.006871724035590887
aF0.006871733348816633
aF0.0068717338144779205
aa(ta(tabag1
(g46
g3
Ntp390
Rp391
(lp392
g1
(g23
g3
Ntp393
Rp394
(lp395
I0
ag1
(g27
g3
Ntp396
Rp397
(lp398
I0
aI0
abag56
aba(lp399
a(lp400
a(lp401
a(lp402
aba(lp403
aI00
abtp404
a(g1
(g2
g3
Ntp405
Rp406
(lp407
g1
(g7
g3
Ntp408
Rp409
(lp410
F-0.34604158752947634
aF0.2513607145654639
aF0.251380839096606
abag1
(g11
g3
Ntp411
Rp412
(lp413
F0.06613587880748652
aF-0.22923315796994292
aF0.8172192243949719
aF0.5246245744346805
ababg1
(g15
g3
Ntp414
Rp415
(lp416
g1
(g19
g3
Ntp417
Rp418
(lp419
g1
(g23
g3
Ntp420
Rp421
(lp422
I0
ag1
(g27
g3
Ntp423
Rp424
(lp425
I0
aI0
abag31
aba(lp426
g33
ag34
ag35
ag36
ag37
ag38
ag39
ag40
ag41
ag42
ag43
ag44
aa(lp427
F-5.126793418587544
aF5.358878686327673
aF-2.738915686466557
aF4.105306773568561
aF-0.9524903637783488
aF-3.7411314784000136
aF0.00038475633482448757
aF0.0003847567713819444
aF0.006871724035590887
aF0.006871724035590887
aF0.006871733348816633
aF0.0068717338144779205
aa(ta(tabag1
(g46
g3
Ntp428
Rp429
(lp430
g1
(g23
g3
Ntp431
Rp432
(lp433
I0
ag1
(g27
g3
Ntp434
Rp435
(lp436
I0
aI0
abag56
aba(lp437
a(lp438
a(lp439
a(lp440
aba(lp441
aI00
abtp442
a(g1
(g2
g3
Ntp443
Rp444
(lp445
g1
(g7
g3
Ntp446
Rp447
(lp448
F-0.3777221568878717
aF-0.3819420312945904
aF0.598470125173971
abag1
(g11
g3
Ntp449
Rp450
(lp451
F0.648184258503094
aF-0.22289795725097167
aF-0.05204990465875309
aF0.7262674955601092
ababg1
(g15
g3
Ntp452
Rp453
(lp454
g1
(g19
g3
Ntp455
Rp456
(lp457
g1
(g23
g3
Ntp458
Rp459
(lp460
I0
ag1
(g27
g3
Ntp461
Rp462
(lp463
I0
aI0
abag31
aba(lp464
g33
ag34
ag35
ag36
ag37
ag38
ag39
ag40
ag41
ag42
ag43
ag44
aa(lp465
F5.361169074760115
aF-1.6597686549295991
aF1.9235478058643238
aF3.357183888641746
aF-5.694004270064848
aF1.1003962092219304
aF0.00038475633482448757
aF0.0003847567713819444
aF0.006871724035590887
aF0.006871724035590887
aF0.006871733348816633
aF0.0068717338144779205
aa(ta(tabag1
(g46
g3
Ntp466
Rp467
(lp468
g1
(g23
g3
Ntp469
Rp470
(lp471
I0
ag1
(g27
g3
Ntp472
Rp473
(lp474
I0
aI0
abag56
aba(lp475
a(lp476
a(lp477
a(lp478
aba(lp479
aI00
abtp480
a(g1
(g2
g3
Ntp481
Rp482
(lp483
g1
(g7
g3
Ntp484
Rp485
(lp486
F0.008351184904634022
aF-0.620603338555976
aF0.6418828350593063
abag1
(g11
g3
Ntp487
Rp488
(lp489
F-0.6493880041955609
aF0.44282242704466923
aF-0.524708017128012
aF0.3269327375390309
ababg1
(g15
g3
Ntp490
Rp491
(lp492
g1
(g19
g3
Ntp493
Rp494
(lp495
g1
(g23
g3
Ntp496
Rp497
(lp498
I0
ag1
(g27
g3
Ntp499
Rp500
(lp501
I0
aI0
abag31
aba(lp502
g33
ag34
ag35
ag36
ag37
ag38
ag39
ag40
ag41
ag42
ag43
ag44
aa(lp503
F-6.083659405451016
aF-6.277432209208948
aF-1.1109348428497512
aF-2.442564012035484
aF-1.697086960746831
aF4.399307184620076
aF0.00038475633482448757
aF0.0003847567713819444
aF0.006871724035590887
aF0.006871724035590887
aF0.006871733348816633
aF0.0068717338144779205
aa(ta(tabag1
(g46
g3
Ntp504
Rp505
(lp506
g1
(g23
g3
Ntp507
Rp508
(lp509
I0
ag1
(g27
g3
Ntp510
Rp511
(lp512
I0
aI0
abag56
aba(lp513
a(lp514
a(lp515
a(lp516
aba(lp517
aI00
abtp518
a(g1
(g2
g3
Ntp519
Rp520
(lp521
g1
(g7
g3
Ntp522
Rp523
(lp524
F-0.1372764391930129
aF-0.09735793079377258
aF0.3605422932478899
abag1
(g11
g3
Ntp525
Rp526
(lp527
F-0.41547137033771825
aF0.5124736968581877
aF0.667868424386583
aF0.3445373973396557
ababg1
(g15
g3
Ntp528
Rp529
(lp530
g1
(g19
g3
Ntp531
Rp532
(lp533
g1
(g23
g3
Ntp534
Rp535
(lp536
I0
ag1
(g27
g3
Ntp537
Rp538
(lp539
I0
aI0
abag31
aba(lp540
g33
ag34
ag35
ag36
ag37
ag38
ag39
ag40
ag41
ag42
ag43
ag44
aa(lp541
F0.10157578285622115
aF-2.633219896201204
aF2.4018842598690906
aF5.027791300694799
aF-1.9951344381120464
aF-3.254128384629199
aF0.00038475633482448757
aF0.0003847567713819444
aF0.006871724035590887
aF0.006871724035590887
aF0.006871733348816633
aF0.0068717338144779205
aa(ta(tabag1
(g46
g3
Ntp542
Rp543
(lp544
g1
(g23
g3
Ntp545
Rp546
(lp547
I0
ag1
(g27
g3
Ntp548
Rp549
(lp550
I0
aI0
abag56
aba(lp551
a(lp552
a(lp553
a(lp554
aba(lp555
aI00
abtp556
a(g1
(g2
g3
Ntp557
Rp558
(lp559
g1
(g7
g3
Ntp560
Rp561
(lp562
F0.011408712873053818
aF-0.043608417284051286
aF0.8433603027916208
abag1
(g11
g3
Ntp563
Rp564
(lp565
F-0.25726647174488637
aF0.33742572562187745
aF0.23949192504777636
aF0.8732705537468887
ababg1
(g15
g3
Ntp566
Rp567
(lp568
g1
(g19
g3
Ntp569
Rp570
(lp571
g1
(g23
g3
Ntp572
Rp573
(lp574
I0
ag1
(g27
g3
Ntp575
Rp576
(lp577
I0
aI0
abag31
aba(lp578
g33
ag34
ag35
ag36
ag37
ag38
ag39
ag40
ag41
ag42
ag43
ag44
aa(lp579
F0.4908423964588975
aF4.8360979091755905
aF0.3818219259015505
aF-3.7785413921473694
aF-5.4811794803952285
aF-4.947037061162292
aF0.00038475633482448757
aF0.0003847567713819444
aF0.006871724035590887
aF0.006871724035590887
aF0.006871733348816633
aF0.0068717338144779205
aa(ta(tabag1
(g46
g3
Ntp580
Rp581
(lp582
g1
(g23
g3
Ntp583
Rp584
(lp585
I0
ag1
(g27
g3
Ntp586
Rp587
(lp588
I0
aI0
abag56
aba(lp589
a(lp590
a(lp591
a(lp592
aba(lp593
aI00
abtp594
a(g1
(g2
g3
Ntp595
Rp596
(lp597
g1
(g7
g3
Ntp598
Rp599
(lp600
F-0.14791574588689357
aF-0.19334940804155235
aF0.7066172822381568
abag1
(g11
g3
Ntp601
Rp602
(lp603
F0.050398799408366786
aF0.20382586526203783
aF-0.7150680358634378
aF0.666777835380558
ababg1
(g15
g3
Ntp604
Rp605
(lp606
g1
(g19
g3
Ntp607
Rp608
(lp609
g1
(g23
g3
Ntp610
Rp611
(lp612
I0
ag1
(g27
g3
Ntp613
Rp614
(lp615
I0
aI0
abag31
aba(lp616
g33
ag34
ag35
ag36
ag37
ag38
ag39
ag40
ag41
ag42
ag43
ag44
aa(lp617
F5.244787557379908
aF5.38674134506782
aF-1.8229626979651194
aF0.12479667275092154
aF5.5607888958297895
aF5.613455055575313
aF0.00038475633482448757
aF0.0003847567713819444
aF0.006871724035590887
aF0.006871724035590887
aF0.006871733348816633
aF0.0068717338144779205
aa(ta(tabag1
(g46
g3
Ntp618
Rp619
(lp620
g1
(g23
g3
Ntp621
Rp622
(lp623
I0
ag1
(g27
g3
Ntp624
Rp625
(lp626
I0
aI0
abag56
aba(lp627
a(lp628
a(lp629
a(lp630
aba(lp631
aI00
abtp632
a(g1
(g2
g3
Ntp633
Rp634
(lp635
g1
(g7
g3
Ntp636
Rp637
(lp638
F-0.6946992160654768
aF-0.18519451300124667
aF0.730078153852557
abag1
(g11
g3
Ntp639
Rp640
(lp641
F0.40242198200794027
aF0.8788493159386028
aF0.12379573548090383
aF0.2243992962283817
ababg1
(g15
g3
Ntp642
Rp643
(lp644
g1
(g19
g3
Ntp645
Rp646
(lp647
g1
(g23
g3
Ntp648
Rp649
(lp650
I0
ag1
(g27
g3
Ntp651
Rp652
(lp653
I0
aI0
abag31
aba(lp654
g33
ag34
ag35
ag36
ag37
ag38
ag39
ag40
ag41
ag42
ag43
ag44
aa(lp655
F-1.2847575401771003
aF-0.31010064667381165
aF-1.304596719381405
aF5.475324586732549
aF-2.677556244290924
aF-2.907265516558446
aF0.00038475633482448757
aF0.0003847567713819444
aF0.006871724035590887
aF0.006871724035590887
aF0.006871733348816633
aF0.0068717338144779205
aa(ta(tabag1
(g46
g3
Ntp656
Rp657
(lp658
g1
(g23
g3
Ntp659
Rp660
(lp661
I0
ag1
(g27
g3
Ntp662
Rp663
(lp664
I0
aI0
abag56
aba(lp665
a(lp666
a(lp667
a(lp668
aba(lp669
aI00
abtp670
a(g1
(g2
g3
Ntp671
Rp672
(lp673
g1
(g7
g3
Ntp674
Rp675
(lp676
F-0.054189935029675174
aF-0.3108561264335915
aF0.7805248384679194
abag1
(g11
g3
Ntp677
Rp678
(lp679
F-0.918780837360899
aF-0.16850710249416478
aF-0.034292702527894126
aF0.355346506751874
ababg1
(g15
g3
Ntp680
Rp681
(lp682
g1
(g19
g3
Ntp683
Rp684
(lp685
g1
(g23
g3
Ntp686
Rp687
(lp688
I0
ag1
(g27
g3
Ntp689
Rp690
(lp691
I0
aI0
abag31
aba(lp692
g33
ag34
ag35
ag36
ag37
ag38
ag39
ag40
ag41
ag42
ag43
ag44
aa(lp693
F-2.477083381060049
aF4.7524553690366265
aF-1.3905986991490717
aF0.25446339101021564
aF-3.5529504595623687
aF-1.9906165082078449
aF0.00038475633482448757
aF0.0003847567713819444
aF0.006871724035590887
aF0.006871724035590887
aF0.006871733348816633
aF0.0068717338144779205
aa(ta(tabag1
(g46
g3
Ntp694
Rp695
(lp696
g1
(g23
g3
Ntp697
Rp698
(lp699
I0
ag1
(g27
g3
Ntp700
Rp701
(lp702
I0
aI0
abag56
aba(lp703
a(lp704
a(lp705
a(lp706
aba(lp707
aI00
abtp708
a(g1
(g2
g3
Ntp709
Rp710
(lp711
g1
(g7
g3
Ntp712
Rp713
(lp714
F-0.4025131904131544
aF0.6017019895779379
aF0.4955242846790523
abag1
(g11
g3
Ntp715
Rp716
(lp717
F0.03090496343538491
aF0.5418513615969621
aF0.8383097025195045
aF0.05175739398612999
ababg1
(g15
g3
Ntp718
Rp719
(lp720
g1
(g19
g3
Ntp721
Rp722
(lp723
g1
(g23
g3
Ntp724
Rp725
(lp726
I0
ag1
(g27
g3
Ntp727
Rp728
(lp729
I0
aI0
abag31
aba(lp730
g33
ag34
ag35
ag36
ag37
ag38
ag39
ag40
ag41
ag42
ag43
ag44
aa(lp731
F-3.2616417680374905
aF-0.12240032223616115
aF-0.7222968436828183
aF2.2945533836215564
aF-6.278880079712852
aF2.8391063082652597
aF0.00038475633482448757
aF0.0003847567713819444
aF0.006871724035590887
aF0.006871724035590887
aF0.006871733348816633
aF0.0068717338144779205
aa(ta(tabag1
(g46
g3
Ntp732
Rp733
(lp734
g1
(g23
g3
Ntp735
Rp736
(lp737
I0
ag1
(g27
g3
Ntp738
Rp739
(lp740
I0
aI0
abag56
aba(lp741
a(lp742
a(lp743
a(lp744
aba(lp745
aI00
abtp746
a(g1
(g2
g3
Ntp747
Rp748
(lp749
g1
(g7
g3
Ntp750
Rp751
(lp752
F0.0966545494796382
aF-0.30911638548182513
aF0.9464931096922592
abag1
(g11
g3
Ntp753
Rp754
(lp755
F-0.7440716685252242
aF-0.15964925350425271
aF0.29008034527504273
aF0.5802782619043523
ababg1
(g15
g3
Ntp756
Rp757
(lp758
g1
(g19
g3
Ntp759
Rp760
(lp761
g1
(g23
g3
Ntp762
Rp763
(lp764
I0
ag1
(g27
g3
Ntp765
Rp766
(lp767
I0
aI0
abag31
aba(lp768
g33
ag34
ag35
ag36
ag37
ag38
ag39
ag40
ag41
ag42
ag43
ag44
aa(lp769
F-2.2144998174806236
aF4.312446011120684
aF-0.1126556420454019
aF-1.7800961714650825
aF-3.5236971333410527
aF-2.4198102143284763
aF0.00038475633482448757
aF0.0003847567713819444
aF0.006871724035590887
aF0.006871724035590887
aF0.006871733348816633
aF0.0068717338144779205
aa(ta(tabag1
(g46
g3
Ntp770
Rp771
(lp772
g1
(g23
g3
Ntp773
Rp774
(lp775
I0
ag1
(g27
g3
Ntp776
Rp777
(lp778
I0
aI0
abag56
aba(lp779
a(lp780
a(lp781
a(lp782
aba(lp783
aI00
abtp784
a.